target datalayout = "e-m:e-p270:32:32-p271:32:32-p272:64:64-i64:64-i128:128-f80:128-n8:16:32:64-S128"
target triple = "x86_64-pc-linux-gnu"

%struct.HpelDSPContext = type { [4 x [4 x ptr]], [4 x [4 x ptr]], [4 x [4 x ptr]], [4 x ptr] }

; Function Attrs: cold nounwind optsize uwtable
define void @ff_hpeldsp_init(ptr noundef %0, i32 noundef %1) #0 {
  %3 = alloca ptr, align 8
  %4 = alloca i32, align 4
  store ptr %0, ptr %3, align 8, !tbaa !4
  store i32 %1, ptr %4, align 4, !tbaa !9
  %5 = load ptr, ptr %3, align 8, !tbaa !4
  %6 = getelementptr inbounds nuw %struct.HpelDSPContext, ptr %5, i32 0, i32 0
  %7 = getelementptr inbounds [4 x [4 x ptr]], ptr %6, i64 0, i64 0
  %8 = getelementptr inbounds [4 x ptr], ptr %7, i64 0, i64 0
  store ptr @put_pixels16_8_c, ptr %8, align 8, !tbaa !11
  %9 = load ptr, ptr %3, align 8, !tbaa !4
  %10 = getelementptr inbounds nuw %struct.HpelDSPContext, ptr %9, i32 0, i32 0
  %11 = getelementptr inbounds [4 x [4 x ptr]], ptr %10, i64 0, i64 0
  %12 = getelementptr inbounds [4 x ptr], ptr %11, i64 0, i64 1
  store ptr @put_pixels16_x2_8_c, ptr %12, align 8, !tbaa !11
  %13 = load ptr, ptr %3, align 8, !tbaa !4
  %14 = getelementptr inbounds nuw %struct.HpelDSPContext, ptr %13, i32 0, i32 0
  %15 = getelementptr inbounds [4 x [4 x ptr]], ptr %14, i64 0, i64 0
  %16 = getelementptr inbounds [4 x ptr], ptr %15, i64 0, i64 2
  store ptr @put_pixels16_y2_8_c, ptr %16, align 8, !tbaa !11
  %17 = load ptr, ptr %3, align 8, !tbaa !4
  %18 = getelementptr inbounds nuw %struct.HpelDSPContext, ptr %17, i32 0, i32 0
  %19 = getelementptr inbounds [4 x [4 x ptr]], ptr %18, i64 0, i64 0
  %20 = getelementptr inbounds [4 x ptr], ptr %19, i64 0, i64 3
  store ptr @put_pixels16_xy2_8_c, ptr %20, align 8, !tbaa !11
  %21 = load ptr, ptr %3, align 8, !tbaa !4
  %22 = getelementptr inbounds nuw %struct.HpelDSPContext, ptr %21, i32 0, i32 0
  %23 = getelementptr inbounds [4 x [4 x ptr]], ptr %22, i64 0, i64 1
  %24 = getelementptr inbounds [4 x ptr], ptr %23, i64 0, i64 0
  store ptr @put_pixels8_8_c, ptr %24, align 8, !tbaa !11
  %25 = load ptr, ptr %3, align 8, !tbaa !4
  %26 = getelementptr inbounds nuw %struct.HpelDSPContext, ptr %25, i32 0, i32 0
  %27 = getelementptr inbounds [4 x [4 x ptr]], ptr %26, i64 0, i64 1
  %28 = getelementptr inbounds [4 x ptr], ptr %27, i64 0, i64 1
  store ptr @put_pixels8_x2_8_c, ptr %28, align 8, !tbaa !11
  %29 = load ptr, ptr %3, align 8, !tbaa !4
  %30 = getelementptr inbounds nuw %struct.HpelDSPContext, ptr %29, i32 0, i32 0
  %31 = getelementptr inbounds [4 x [4 x ptr]], ptr %30, i64 0, i64 1
  %32 = getelementptr inbounds [4 x ptr], ptr %31, i64 0, i64 2
  store ptr @put_pixels8_y2_8_c, ptr %32, align 8, !tbaa !11
  %33 = load ptr, ptr %3, align 8, !tbaa !4
  %34 = getelementptr inbounds nuw %struct.HpelDSPContext, ptr %33, i32 0, i32 0
  %35 = getelementptr inbounds [4 x [4 x ptr]], ptr %34, i64 0, i64 1
  %36 = getelementptr inbounds [4 x ptr], ptr %35, i64 0, i64 3
  store ptr @put_pixels8_xy2_8_c, ptr %36, align 8, !tbaa !11
  %37 = load ptr, ptr %3, align 8, !tbaa !4
  %38 = getelementptr inbounds nuw %struct.HpelDSPContext, ptr %37, i32 0, i32 0
  %39 = getelementptr inbounds [4 x [4 x ptr]], ptr %38, i64 0, i64 2
  %40 = getelementptr inbounds [4 x ptr], ptr %39, i64 0, i64 0
  store ptr @put_pixels4_8_c, ptr %40, align 8, !tbaa !11
  %41 = load ptr, ptr %3, align 8, !tbaa !4
  %42 = getelementptr inbounds nuw %struct.HpelDSPContext, ptr %41, i32 0, i32 0
  %43 = getelementptr inbounds [4 x [4 x ptr]], ptr %42, i64 0, i64 2
  %44 = getelementptr inbounds [4 x ptr], ptr %43, i64 0, i64 1
  store ptr @put_pixels4_x2_8_c, ptr %44, align 8, !tbaa !11
  %45 = load ptr, ptr %3, align 8, !tbaa !4
  %46 = getelementptr inbounds nuw %struct.HpelDSPContext, ptr %45, i32 0, i32 0
  %47 = getelementptr inbounds [4 x [4 x ptr]], ptr %46, i64 0, i64 2
  %48 = getelementptr inbounds [4 x ptr], ptr %47, i64 0, i64 2
  store ptr @put_pixels4_y2_8_c, ptr %48, align 8, !tbaa !11
  %49 = load ptr, ptr %3, align 8, !tbaa !4
  %50 = getelementptr inbounds nuw %struct.HpelDSPContext, ptr %49, i32 0, i32 0
  %51 = getelementptr inbounds [4 x [4 x ptr]], ptr %50, i64 0, i64 2
  %52 = getelementptr inbounds [4 x ptr], ptr %51, i64 0, i64 3
  store ptr @put_pixels4_xy2_8_c, ptr %52, align 8, !tbaa !11
  %53 = load ptr, ptr %3, align 8, !tbaa !4
  %54 = getelementptr inbounds nuw %struct.HpelDSPContext, ptr %53, i32 0, i32 0
  %55 = getelementptr inbounds [4 x [4 x ptr]], ptr %54, i64 0, i64 3
  %56 = getelementptr inbounds [4 x ptr], ptr %55, i64 0, i64 0
  store ptr @put_pixels2_8_c, ptr %56, align 8, !tbaa !11
  %57 = load ptr, ptr %3, align 8, !tbaa !4
  %58 = getelementptr inbounds nuw %struct.HpelDSPContext, ptr %57, i32 0, i32 0
  %59 = getelementptr inbounds [4 x [4 x ptr]], ptr %58, i64 0, i64 3
  %60 = getelementptr inbounds [4 x ptr], ptr %59, i64 0, i64 1
  store ptr @put_pixels2_x2_8_c, ptr %60, align 8, !tbaa !11
  %61 = load ptr, ptr %3, align 8, !tbaa !4
  %62 = getelementptr inbounds nuw %struct.HpelDSPContext, ptr %61, i32 0, i32 0
  %63 = getelementptr inbounds [4 x [4 x ptr]], ptr %62, i64 0, i64 3
  %64 = getelementptr inbounds [4 x ptr], ptr %63, i64 0, i64 2
  store ptr @put_pixels2_y2_8_c, ptr %64, align 8, !tbaa !11
  %65 = load ptr, ptr %3, align 8, !tbaa !4
  %66 = getelementptr inbounds nuw %struct.HpelDSPContext, ptr %65, i32 0, i32 0
  %67 = getelementptr inbounds [4 x [4 x ptr]], ptr %66, i64 0, i64 3
  %68 = getelementptr inbounds [4 x ptr], ptr %67, i64 0, i64 3
  store ptr @put_pixels2_xy2_8_c, ptr %68, align 8, !tbaa !11
  %69 = load ptr, ptr %3, align 8, !tbaa !4
  %70 = getelementptr inbounds nuw %struct.HpelDSPContext, ptr %69, i32 0, i32 2
  %71 = getelementptr inbounds [4 x [4 x ptr]], ptr %70, i64 0, i64 0
  %72 = getelementptr inbounds [4 x ptr], ptr %71, i64 0, i64 0
  store ptr @put_no_rnd_pixels16_8_c, ptr %72, align 8, !tbaa !11
  %73 = load ptr, ptr %3, align 8, !tbaa !4
  %74 = getelementptr inbounds nuw %struct.HpelDSPContext, ptr %73, i32 0, i32 2
  %75 = getelementptr inbounds [4 x [4 x ptr]], ptr %74, i64 0, i64 0
  %76 = getelementptr inbounds [4 x ptr], ptr %75, i64 0, i64 1
  store ptr @put_no_rnd_pixels16_x2_8_c, ptr %76, align 8, !tbaa !11
  %77 = load ptr, ptr %3, align 8, !tbaa !4
  %78 = getelementptr inbounds nuw %struct.HpelDSPContext, ptr %77, i32 0, i32 2
  %79 = getelementptr inbounds [4 x [4 x ptr]], ptr %78, i64 0, i64 0
  %80 = getelementptr inbounds [4 x ptr], ptr %79, i64 0, i64 2
  store ptr @put_no_rnd_pixels16_y2_8_c, ptr %80, align 8, !tbaa !11
  %81 = load ptr, ptr %3, align 8, !tbaa !4
  %82 = getelementptr inbounds nuw %struct.HpelDSPContext, ptr %81, i32 0, i32 2
  %83 = getelementptr inbounds [4 x [4 x ptr]], ptr %82, i64 0, i64 0
  %84 = getelementptr inbounds [4 x ptr], ptr %83, i64 0, i64 3
  store ptr @put_no_rnd_pixels16_xy2_8_c, ptr %84, align 8, !tbaa !11
  %85 = load ptr, ptr %3, align 8, !tbaa !4
  %86 = getelementptr inbounds nuw %struct.HpelDSPContext, ptr %85, i32 0, i32 2
  %87 = getelementptr inbounds [4 x [4 x ptr]], ptr %86, i64 0, i64 1
  %88 = getelementptr inbounds [4 x ptr], ptr %87, i64 0, i64 0
  store ptr @put_pixels8_8_c, ptr %88, align 8, !tbaa !11
  %89 = load ptr, ptr %3, align 8, !tbaa !4
  %90 = getelementptr inbounds nuw %struct.HpelDSPContext, ptr %89, i32 0, i32 2
  %91 = getelementptr inbounds [4 x [4 x ptr]], ptr %90, i64 0, i64 1
  %92 = getelementptr inbounds [4 x ptr], ptr %91, i64 0, i64 1
  store ptr @put_no_rnd_pixels8_x2_8_c, ptr %92, align 8, !tbaa !11
  %93 = load ptr, ptr %3, align 8, !tbaa !4
  %94 = getelementptr inbounds nuw %struct.HpelDSPContext, ptr %93, i32 0, i32 2
  %95 = getelementptr inbounds [4 x [4 x ptr]], ptr %94, i64 0, i64 1
  %96 = getelementptr inbounds [4 x ptr], ptr %95, i64 0, i64 2
  store ptr @put_no_rnd_pixels8_y2_8_c, ptr %96, align 8, !tbaa !11
  %97 = load ptr, ptr %3, align 8, !tbaa !4
  %98 = getelementptr inbounds nuw %struct.HpelDSPContext, ptr %97, i32 0, i32 2
  %99 = getelementptr inbounds [4 x [4 x ptr]], ptr %98, i64 0, i64 1
  %100 = getelementptr inbounds [4 x ptr], ptr %99, i64 0, i64 3
  store ptr @put_no_rnd_pixels8_xy2_8_c, ptr %100, align 8, !tbaa !11
  %101 = load ptr, ptr %3, align 8, !tbaa !4
  %102 = getelementptr inbounds nuw %struct.HpelDSPContext, ptr %101, i32 0, i32 1
  %103 = getelementptr inbounds [4 x [4 x ptr]], ptr %102, i64 0, i64 0
  %104 = getelementptr inbounds [4 x ptr], ptr %103, i64 0, i64 0
  store ptr @avg_pixels16_8_c, ptr %104, align 8, !tbaa !11
  %105 = load ptr, ptr %3, align 8, !tbaa !4
  %106 = getelementptr inbounds nuw %struct.HpelDSPContext, ptr %105, i32 0, i32 1
  %107 = getelementptr inbounds [4 x [4 x ptr]], ptr %106, i64 0, i64 0
  %108 = getelementptr inbounds [4 x ptr], ptr %107, i64 0, i64 1
  store ptr @avg_pixels16_x2_8_c, ptr %108, align 8, !tbaa !11
  %109 = load ptr, ptr %3, align 8, !tbaa !4
  %110 = getelementptr inbounds nuw %struct.HpelDSPContext, ptr %109, i32 0, i32 1
  %111 = getelementptr inbounds [4 x [4 x ptr]], ptr %110, i64 0, i64 0
  %112 = getelementptr inbounds [4 x ptr], ptr %111, i64 0, i64 2
  store ptr @avg_pixels16_y2_8_c, ptr %112, align 8, !tbaa !11
  %113 = load ptr, ptr %3, align 8, !tbaa !4
  %114 = getelementptr inbounds nuw %struct.HpelDSPContext, ptr %113, i32 0, i32 1
  %115 = getelementptr inbounds [4 x [4 x ptr]], ptr %114, i64 0, i64 0
  %116 = getelementptr inbounds [4 x ptr], ptr %115, i64 0, i64 3
  store ptr @avg_pixels16_xy2_8_c, ptr %116, align 8, !tbaa !11
  %117 = load ptr, ptr %3, align 8, !tbaa !4
  %118 = getelementptr inbounds nuw %struct.HpelDSPContext, ptr %117, i32 0, i32 1
  %119 = getelementptr inbounds [4 x [4 x ptr]], ptr %118, i64 0, i64 1
  %120 = getelementptr inbounds [4 x ptr], ptr %119, i64 0, i64 0
  store ptr @avg_pixels8_8_c, ptr %120, align 8, !tbaa !11
  %121 = load ptr, ptr %3, align 8, !tbaa !4
  %122 = getelementptr inbounds nuw %struct.HpelDSPContext, ptr %121, i32 0, i32 1
  %123 = getelementptr inbounds [4 x [4 x ptr]], ptr %122, i64 0, i64 1
  %124 = getelementptr inbounds [4 x ptr], ptr %123, i64 0, i64 1
  store ptr @avg_pixels8_x2_8_c, ptr %124, align 8, !tbaa !11
  %125 = load ptr, ptr %3, align 8, !tbaa !4
  %126 = getelementptr inbounds nuw %struct.HpelDSPContext, ptr %125, i32 0, i32 1
  %127 = getelementptr inbounds [4 x [4 x ptr]], ptr %126, i64 0, i64 1
  %128 = getelementptr inbounds [4 x ptr], ptr %127, i64 0, i64 2
  store ptr @avg_pixels8_y2_8_c, ptr %128, align 8, !tbaa !11
  %129 = load ptr, ptr %3, align 8, !tbaa !4
  %130 = getelementptr inbounds nuw %struct.HpelDSPContext, ptr %129, i32 0, i32 1
  %131 = getelementptr inbounds [4 x [4 x ptr]], ptr %130, i64 0, i64 1
  %132 = getelementptr inbounds [4 x ptr], ptr %131, i64 0, i64 3
  store ptr @avg_pixels8_xy2_8_c, ptr %132, align 8, !tbaa !11
  %133 = load ptr, ptr %3, align 8, !tbaa !4
  %134 = getelementptr inbounds nuw %struct.HpelDSPContext, ptr %133, i32 0, i32 1
  %135 = getelementptr inbounds [4 x [4 x ptr]], ptr %134, i64 0, i64 2
  %136 = getelementptr inbounds [4 x ptr], ptr %135, i64 0, i64 0
  store ptr @avg_pixels4_8_c, ptr %136, align 8, !tbaa !11
  %137 = load ptr, ptr %3, align 8, !tbaa !4
  %138 = getelementptr inbounds nuw %struct.HpelDSPContext, ptr %137, i32 0, i32 1
  %139 = getelementptr inbounds [4 x [4 x ptr]], ptr %138, i64 0, i64 2
  %140 = getelementptr inbounds [4 x ptr], ptr %139, i64 0, i64 1
  store ptr @avg_pixels4_x2_8_c, ptr %140, align 8, !tbaa !11
  %141 = load ptr, ptr %3, align 8, !tbaa !4
  %142 = getelementptr inbounds nuw %struct.HpelDSPContext, ptr %141, i32 0, i32 1
  %143 = getelementptr inbounds [4 x [4 x ptr]], ptr %142, i64 0, i64 2
  %144 = getelementptr inbounds [4 x ptr], ptr %143, i64 0, i64 2
  store ptr @avg_pixels4_y2_8_c, ptr %144, align 8, !tbaa !11
  %145 = load ptr, ptr %3, align 8, !tbaa !4
  %146 = getelementptr inbounds nuw %struct.HpelDSPContext, ptr %145, i32 0, i32 1
  %147 = getelementptr inbounds [4 x [4 x ptr]], ptr %146, i64 0, i64 2
  %148 = getelementptr inbounds [4 x ptr], ptr %147, i64 0, i64 3
  store ptr @avg_pixels4_xy2_8_c, ptr %148, align 8, !tbaa !11
  %149 = load ptr, ptr %3, align 8, !tbaa !4
  %150 = getelementptr inbounds nuw %struct.HpelDSPContext, ptr %149, i32 0, i32 1
  %151 = getelementptr inbounds [4 x [4 x ptr]], ptr %150, i64 0, i64 3
  %152 = getelementptr inbounds [4 x ptr], ptr %151, i64 0, i64 0
  store ptr @avg_pixels2_8_c, ptr %152, align 8, !tbaa !11
  %153 = load ptr, ptr %3, align 8, !tbaa !4
  %154 = getelementptr inbounds nuw %struct.HpelDSPContext, ptr %153, i32 0, i32 1
  %155 = getelementptr inbounds [4 x [4 x ptr]], ptr %154, i64 0, i64 3
  %156 = getelementptr inbounds [4 x ptr], ptr %155, i64 0, i64 1
  store ptr @avg_pixels2_x2_8_c, ptr %156, align 8, !tbaa !11
  %157 = load ptr, ptr %3, align 8, !tbaa !4
  %158 = getelementptr inbounds nuw %struct.HpelDSPContext, ptr %157, i32 0, i32 1
  %159 = getelementptr inbounds [4 x [4 x ptr]], ptr %158, i64 0, i64 3
  %160 = getelementptr inbounds [4 x ptr], ptr %159, i64 0, i64 2
  store ptr @avg_pixels2_y2_8_c, ptr %160, align 8, !tbaa !11
  %161 = load ptr, ptr %3, align 8, !tbaa !4
  %162 = getelementptr inbounds nuw %struct.HpelDSPContext, ptr %161, i32 0, i32 1
  %163 = getelementptr inbounds [4 x [4 x ptr]], ptr %162, i64 0, i64 3
  %164 = getelementptr inbounds [4 x ptr], ptr %163, i64 0, i64 3
  store ptr @avg_pixels2_xy2_8_c, ptr %164, align 8, !tbaa !11
  %165 = load ptr, ptr %3, align 8, !tbaa !4
  %166 = getelementptr inbounds nuw %struct.HpelDSPContext, ptr %165, i32 0, i32 3
  %167 = getelementptr inbounds [4 x ptr], ptr %166, i64 0, i64 0
  store ptr @avg_no_rnd_pixels16_8_c, ptr %167, align 8, !tbaa !11
  %168 = load ptr, ptr %3, align 8, !tbaa !4
  %169 = getelementptr inbounds nuw %struct.HpelDSPContext, ptr %168, i32 0, i32 3
  %170 = getelementptr inbounds [4 x ptr], ptr %169, i64 0, i64 1
  store ptr @avg_no_rnd_pixels16_x2_8_c, ptr %170, align 8, !tbaa !11
  %171 = load ptr, ptr %3, align 8, !tbaa !4
  %172 = getelementptr inbounds nuw %struct.HpelDSPContext, ptr %171, i32 0, i32 3
  %173 = getelementptr inbounds [4 x ptr], ptr %172, i64 0, i64 2
  store ptr @avg_no_rnd_pixels16_y2_8_c, ptr %173, align 8, !tbaa !11
  %174 = load ptr, ptr %3, align 8, !tbaa !4
  %175 = getelementptr inbounds nuw %struct.HpelDSPContext, ptr %174, i32 0, i32 3
  %176 = getelementptr inbounds [4 x ptr], ptr %175, i64 0, i64 3
  store ptr @avg_no_rnd_pixels16_xy2_8_c, ptr %176, align 8, !tbaa !11
  ret void
}