; Function Attrs: cold mustprogress nofree norecurse nosync nounwind optsize willreturn memory(argmem: write) uwtable
define void @ff_hpeldsp_init(ptr noundef writeonly captures(none) initializes((0, 320), (384, 416)) %0, i32 noundef %1) local_unnamed_addr #0 {
  store ptr @put_pixels16_8_c, ptr %0, align 8, !tbaa !4
  %3 = getelementptr inbounds nuw i8, ptr %0, i64 8
  store ptr @put_pixels16_x2_8_c, ptr %3, align 8, !tbaa !4
  %4 = getelementptr inbounds nuw i8, ptr %0, i64 16
  store ptr @put_pixels16_y2_8_c, ptr %4, align 8, !tbaa !4
  %5 = getelementptr inbounds nuw i8, ptr %0, i64 24
  store ptr @put_pixels16_xy2_8_c, ptr %5, align 8, !tbaa !4
  %6 = getelementptr inbounds nuw i8, ptr %0, i64 32
  store ptr @put_pixels8_8_c, ptr %6, align 8, !tbaa !4
  %7 = getelementptr inbounds nuw i8, ptr %0, i64 40
  store ptr @put_pixels8_x2_8_c, ptr %7, align 8, !tbaa !4
  %8 = getelementptr inbounds nuw i8, ptr %0, i64 48
  store ptr @put_pixels8_y2_8_c, ptr %8, align 8, !tbaa !4
  %9 = getelementptr inbounds nuw i8, ptr %0, i64 56
  store ptr @put_pixels8_xy2_8_c, ptr %9, align 8, !tbaa !4
  %10 = getelementptr inbounds nuw i8, ptr %0, i64 64
  store ptr @put_pixels4_8_c, ptr %10, align 8, !tbaa !4
  %11 = getelementptr inbounds nuw i8, ptr %0, i64 72
  store ptr @put_pixels4_x2_8_c, ptr %11, align 8, !tbaa !4
  %12 = getelementptr inbounds nuw i8, ptr %0, i64 80
  store ptr @put_pixels4_y2_8_c, ptr %12, align 8, !tbaa !4
  %13 = getelementptr inbounds nuw i8, ptr %0, i64 88
  store ptr @put_pixels4_xy2_8_c, ptr %13, align 8, !tbaa !4
  %14 = getelementptr inbounds nuw i8, ptr %0, i64 96
  store ptr @put_pixels2_8_c, ptr %14, align 8, !tbaa !4
  %15 = getelementptr inbounds nuw i8, ptr %0, i64 104
  store ptr @put_pixels2_x2_8_c, ptr %15, align 8, !tbaa !4
  %16 = getelementptr inbounds nuw i8, ptr %0, i64 112
  store ptr @put_pixels2_y2_8_c, ptr %16, align 8, !tbaa !4
  %17 = getelementptr inbounds nuw i8, ptr %0, i64 120
  store ptr @put_pixels2_xy2_8_c, ptr %17, align 8, !tbaa !4
  %18 = getelementptr inbounds nuw i8, ptr %0, i64 256
  store ptr @put_no_rnd_pixels16_8_c, ptr %18, align 8, !tbaa !4
  %19 = getelementptr inbounds nuw i8, ptr %0, i64 264
  store ptr @put_no_rnd_pixels16_x2_8_c, ptr %19, align 8, !tbaa !4
  %20 = getelementptr inbounds nuw i8, ptr %0, i64 272
  store ptr @put_no_rnd_pixels16_y2_8_c, ptr %20, align 8, !tbaa !4
  %21 = getelementptr inbounds nuw i8, ptr %0, i64 280
  store ptr @put_no_rnd_pixels16_xy2_8_c, ptr %21, align 8, !tbaa !4
  %22 = getelementptr inbounds nuw i8, ptr %0, i64 288
  store ptr @put_pixels8_8_c, ptr %22, align 8, !tbaa !4
  %23 = getelementptr inbounds nuw i8, ptr %0, i64 296
  store ptr @put_no_rnd_pixels8_x2_8_c, ptr %23, align 8, !tbaa !4
  %24 = getelementptr inbounds nuw i8, ptr %0, i64 304
  store ptr @put_no_rnd_pixels8_y2_8_c, ptr %24, align 8, !tbaa !4
  %25 = getelementptr inbounds nuw i8, ptr %0, i64 312
  store ptr @put_no_rnd_pixels8_xy2_8_c, ptr %25, align 8, !tbaa !4
  %26 = getelementptr inbounds nuw i8, ptr %0, i64 128
  store ptr @avg_pixels16_8_c, ptr %26, align 8, !tbaa !4
  %27 = getelementptr inbounds nuw i8, ptr %0, i64 136
  store ptr @avg_pixels16_x2_8_c, ptr %27, align 8, !tbaa !4
  %28 = getelementptr inbounds nuw i8, ptr %0, i64 144
  store ptr @avg_pixels16_y2_8_c, ptr %28, align 8, !tbaa !4
  %29 = getelementptr inbounds nuw i8, ptr %0, i64 152
  store ptr @avg_pixels16_xy2_8_c, ptr %29, align 8, !tbaa !4
  %30 = getelementptr inbounds nuw i8, ptr %0, i64 160
  store ptr @avg_pixels8_8_c, ptr %30, align 8, !tbaa !4
  %31 = getelementptr inbounds nuw i8, ptr %0, i64 168
  store ptr @avg_pixels8_x2_8_c, ptr %31, align 8, !tbaa !4
  %32 = getelementptr inbounds nuw i8, ptr %0, i64 176
  store ptr @avg_pixels8_y2_8_c, ptr %32, align 8, !tbaa !4
  %33 = getelementptr inbounds nuw i8, ptr %0, i64 184
  store ptr @avg_pixels8_xy2_8_c, ptr %33, align 8, !tbaa !4
  %34 = getelementptr inbounds nuw i8, ptr %0, i64 192
  store ptr @avg_pixels4_8_c, ptr %34, align 8, !tbaa !4
  %35 = getelementptr inbounds nuw i8, ptr %0, i64 200
  store ptr @avg_pixels4_x2_8_c, ptr %35, align 8, !tbaa !4
  %36 = getelementptr inbounds nuw i8, ptr %0, i64 208
  store ptr @avg_pixels4_y2_8_c, ptr %36, align 8, !tbaa !4
  %37 = getelementptr inbounds nuw i8, ptr %0, i64 216
  store ptr @avg_pixels4_xy2_8_c, ptr %37, align 8, !tbaa !4
  %38 = getelementptr inbounds nuw i8, ptr %0, i64 224
  store ptr @avg_pixels2_8_c, ptr %38, align 8, !tbaa !4
  %39 = getelementptr inbounds nuw i8, ptr %0, i64 232
  store ptr @avg_pixels2_x2_8_c, ptr %39, align 8, !tbaa !4
  %40 = getelementptr inbounds nuw i8, ptr %0, i64 240
  store ptr @avg_pixels2_y2_8_c, ptr %40, align 8, !tbaa !4
  %41 = getelementptr inbounds nuw i8, ptr %0, i64 248
  store ptr @avg_pixels2_xy2_8_c, ptr %41, align 8, !tbaa !4
  %42 = getelementptr inbounds nuw i8, ptr %0, i64 384
  store ptr @avg_no_rnd_pixels16_8_c, ptr %42, align 8, !tbaa !4
  %43 = getelementptr inbounds nuw i8, ptr %0, i64 392
  store ptr @avg_no_rnd_pixels16_x2_8_c, ptr %43, align 8, !tbaa !4
  %44 = getelementptr inbounds nuw i8, ptr %0, i64 400
  store ptr @avg_no_rnd_pixels16_y2_8_c, ptr %44, align 8, !tbaa !4
  %45 = getelementptr inbounds nuw i8, ptr %0, i64 408
  store ptr @avg_no_rnd_pixels16_xy2_8_c, ptr %45, align 8, !tbaa !4
  ret void
}